target datalayout = "e-m:e-p270:32:32-p271:32:32-p272:64:64-i64:64-i128:128-f80:128-n8:16:32:64-S128"
target triple = "x86_64-pc-linux-gnu"

%struct.CRYPTO_REF_COUNT = type { i32 }
%struct.cert_st = type { ptr, ptr, ptr, i32, i32, ptr, i64, ptr, i64, ptr, i64, ptr, i64, ptr, ptr, ptr, ptr, %struct.custom_ext_methods, ptr, i32, ptr, ptr, %struct.CRYPTO_REF_COUNT }
%struct.custom_ext_methods = type { ptr, i64 }
%struct.cert_pkey_st = type { ptr, ptr, ptr, ptr, i64 }

@.str = private unnamed_addr constant [25 x i8] c"../openssl/ssl/ssl_rsa.c\00", align 1
@__func__.ssl_set_pkey = private unnamed_addr constant [13 x i8] c"ssl_set_pkey\00", align 1

; Function Attrs: nounwind uwtable
define internal i32 @ssl_set_pkey(ptr noundef %0, ptr noundef %1, ptr noundef %2) #0 {
  %4 = alloca i32, align 4
  %5 = alloca ptr, align 8
  %6 = alloca ptr, align 8
  %7 = alloca ptr, align 8
  %8 = alloca i64, align 8
  %9 = alloca i32, align 4
  store ptr %0, ptr %5, align 8, !tbaa !75
  store ptr %1, ptr %6, align 8, !tbaa !77
  store ptr %2, ptr %7, align 8, !tbaa !76
  call void @llvm.lifetime.start.p0(i64 8, ptr %8) #6
  %10 = load ptr, ptr %6, align 8, !tbaa !77
  %11 = load ptr, ptr %7, align 8, !tbaa !76
  %12 = call ptr @ssl_cert_lookup_by_pkey(ptr noundef %10, ptr noundef %8, ptr noundef %11)
  %13 = icmp eq ptr %12, null
  br i1 %13, label %14, label %15

14:                                               ; preds = %3
  call void @ERR_new()
  call void @ERR_set_debug(ptr noundef @.str, i32 noundef 138, ptr noundef @__func__.ssl_set_pkey)
  call void (i32, i32, ptr, ...) @ERR_set_error(i32 noundef 20, i32 noundef 247, ptr noundef null)
  store i32 0, ptr %4, align 4
  store i32 1, ptr %9, align 4
  br label %60

15:                                               ; preds = %3
  %16 = load ptr, ptr %5, align 8, !tbaa !75
  %17 = getelementptr inbounds nuw %struct.cert_st, ptr %16, i32 0, i32 5
  %18 = load ptr, ptr %17, align 8, !tbaa !79
  %19 = load i64, ptr %8, align 8, !tbaa !78
  %20 = getelementptr inbounds nuw %struct.cert_pkey_st, ptr %18, i64 %19
  %21 = getelementptr inbounds nuw %struct.cert_pkey_st, ptr %20, i32 0, i32 0
  %22 = load ptr, ptr %21, align 8, !tbaa !85
  %23 = icmp ne ptr %22, null
  br i1 %23, label %24, label %36

24:                                               ; preds = %15
  %25 = load ptr, ptr %5, align 8, !tbaa !75
  %26 = getelementptr inbounds nuw %struct.cert_st, ptr %25, i32 0, i32 5
  %27 = load ptr, ptr %26, align 8, !tbaa !79
  %28 = load i64, ptr %8, align 8, !tbaa !78
  %29 = getelementptr inbounds nuw %struct.cert_pkey_st, ptr %27, i64 %28
  %30 = getelementptr inbounds nuw %struct.cert_pkey_st, ptr %29, i32 0, i32 0
  %31 = load ptr, ptr %30, align 8, !tbaa !85
  %32 = load ptr, ptr %6, align 8, !tbaa !77
  %33 = call i32 @X509_check_private_key(ptr noundef %31, ptr noundef %32)
  %34 = icmp ne i32 %33, 0
  br i1 %34, label %36, label %35

35:                                               ; preds = %24
  store i32 0, ptr %4, align 4
  store i32 1, ptr %9, align 4
  br label %60

36:                                               ; preds = %24, %15
  %37 = load ptr, ptr %5, align 8, !tbaa !75
  %38 = getelementptr inbounds nuw %struct.cert_st, ptr %37, i32 0, i32 5
  %39 = load ptr, ptr %38, align 8, !tbaa !79
  %40 = load i64, ptr %8, align 8, !tbaa !78
  %41 = getelementptr inbounds nuw %struct.cert_pkey_st, ptr %39, i64 %40
  %42 = getelementptr inbounds nuw %struct.cert_pkey_st, ptr %41, i32 0, i32 1
  %43 = load ptr, ptr %42, align 8, !tbaa !83
  call void @EVP_PKEY_free(ptr noundef %43)
  %44 = load ptr, ptr %6, align 8, !tbaa !77
  %45 = call i32 @EVP_PKEY_up_ref(ptr noundef %44)
  %46 = load ptr, ptr %6, align 8, !tbaa !77
  %47 = load ptr, ptr %5, align 8, !tbaa !75
  %48 = getelementptr inbounds nuw %struct.cert_st, ptr %47, i32 0, i32 5
  %49 = load ptr, ptr %48, align 8, !tbaa !79
  %50 = load i64, ptr %8, align 8, !tbaa !78
  %51 = getelementptr inbounds nuw %struct.cert_pkey_st, ptr %49, i64 %50
  %52 = getelementptr inbounds nuw %struct.cert_pkey_st, ptr %51, i32 0, i32 1
  store ptr %46, ptr %52, align 8, !tbaa !83
  %53 = load ptr, ptr %5, align 8, !tbaa !75
  %54 = getelementptr inbounds nuw %struct.cert_st, ptr %53, i32 0, i32 5
  %55 = load ptr, ptr %54, align 8, !tbaa !79
  %56 = load i64, ptr %8, align 8, !tbaa !78
  %57 = getelementptr inbounds nuw %struct.cert_pkey_st, ptr %55, i64 %56
  %58 = load ptr, ptr %5, align 8, !tbaa !75
  %59 = getelementptr inbounds nuw %struct.cert_st, ptr %58, i32 0, i32 0
  store ptr %57, ptr %59, align 8, !tbaa !86
  store i32 1, ptr %4, align 4
  store i32 1, ptr %9, align 4
  br label %60

60:                                               ; preds = %36, %35, %14
  call void @llvm.lifetime.end.p0(i64 8, ptr %8) #6
  %61 = load i32, ptr %4, align 4
  ret i32 %61
}