; Function Attrs: nounwind uwtable
define internal fastcc range(i32 0, 2) i32 @ssl_set_pkey(ptr noundef captures(none) %0, ptr noundef nonnull %1, ptr noundef %2) unnamed_addr #0 {
  %4 = alloca i64, align 8
  call void @llvm.lifetime.start.p0(i64 8, ptr nonnull %4) #6
  %5 = call ptr @ssl_cert_lookup_by_pkey(ptr noundef nonnull %1, ptr noundef nonnull %4, ptr noundef %2) #6
  %6 = icmp eq ptr %5, null
  br i1 %6, label %7, label %8

7:                                                ; preds = %3
  call void @ERR_new() #6
  call void @ERR_set_debug(ptr noundef nonnull @.str, i32 noundef 138, ptr noundef nonnull @__func__.ssl_set_pkey) #6
  call void (i32, i32, ptr, ...) @ERR_set_error(i32 noundef 20, i32 noundef 247, ptr noundef null) #6
  br label %26

8:                                                ; preds = %3
  %9 = getelementptr inbounds nuw i8, ptr %0, i64 32
  %10 = load ptr, ptr %9, align 8, !tbaa !72
  %11 = load i64, ptr %4, align 8, !tbaa !71
  %12 = getelementptr inbounds nuw %struct.cert_pkey_st, ptr %10, i64 %11
  %13 = load ptr, ptr %12, align 8, !tbaa !78
  %.not = icmp eq ptr %13, null
  br i1 %.not, label %16, label %14

14:                                               ; preds = %8
  %15 = call i32 @X509_check_private_key(ptr noundef nonnull %13, ptr noundef nonnull %1) #6
  %.not12 = icmp eq i32 %15, 0
  br i1 %.not12, label %26, label %._crit_edge

._crit_edge:                                      ; preds = %14
  %.pre = load ptr, ptr %9, align 8, !tbaa !72
  %.pre13 = load i64, ptr %4, align 8, !tbaa !71
  br label %16

16:                                               ; preds = %._crit_edge, %8
  %17 = phi i64 [ %.pre13, %._crit_edge ], [ %11, %8 ]
  %18 = phi ptr [ %.pre, %._crit_edge ], [ %10, %8 ]
  %19 = getelementptr inbounds nuw %struct.cert_pkey_st, ptr %18, i64 %17, i32 1
  %20 = load ptr, ptr %19, align 8, !tbaa !76
  call void @EVP_PKEY_free(ptr noundef %20) #6
  %21 = call i32 @EVP_PKEY_up_ref(ptr noundef nonnull %1) #6
  %22 = load ptr, ptr %9, align 8, !tbaa !72
  %23 = load i64, ptr %4, align 8, !tbaa !71
  %24 = getelementptr inbounds nuw %struct.cert_pkey_st, ptr %22, i64 %23, i32 1
  store ptr %1, ptr %24, align 8, !tbaa !76
  %25 = getelementptr inbounds nuw %struct.cert_pkey_st, ptr %22, i64 %23
  store ptr %25, ptr %0, align 8, !tbaa !79
  br label %26

26:                                               ; preds = %14, %16, %7
  %.0 = phi i32 [ 0, %7 ], [ 1, %16 ], [ 0, %14 ]
  call void @llvm.lifetime.end.p0(i64 8, ptr nonnull %4) #6
  ret i32 %.0
}